target datalayout = "e-m:e-p270:32:32-p271:32:32-p272:64:64-i64:64-i128:128-f80:128-n8:16:32:64-S128"
target triple = "x86_64-pc-linux-gnu"

%struct.Abc_Ntk_t_ = type { i32, i32, ptr, ptr, ptr, ptr, ptr, ptr, ptr, ptr, ptr, ptr, ptr, [11 x i32], i32, i32, i32, i32, ptr, i32, ptr, ptr, i32, i32, i32, double, i32, %struct.Vec_Int_t_, ptr, ptr, ptr, ptr, ptr, float, i32, ptr, ptr, ptr, ptr, ptr, ptr, ptr, ptr, ptr, ptr, ptr, ptr, ptr, ptr, ptr, ptr, ptr, ptr, ptr, ptr, ptr, ptr }
%struct.Vec_Int_t_ = type { i32, i32, ptr }
%struct.Abc_Des_t_ = type { ptr, ptr, ptr, ptr, ptr, ptr, ptr }
%struct.Vec_Ptr_t_ = type { i32, i32, ptr }

@.str = private unnamed_addr constant [2 x i8] c"w\00", align 1
@stdout = external global ptr, align 8
@.str.1 = private unnamed_addr constant [50 x i8] c"Io_WriteEdgelist(): Cannot open the output file.\0A\00", align 1
@.str.2 = private unnamed_addr constant [97 x i8] c"WriteEdgelist (Verilog-to-PyG @ https://github.com/ycunxi/Verilog-to-PyG) starts writing to %s.\0A\00", align 1
@.str.3 = private unnamed_addr constant [114 x i8] c"# Benchmark Edgelist Dumping (beta) \22%s\22 written by ABC on %s (more at https://github.com/ycunxi/Verilog-to-PyG)\0A\00", align 1
@.str.4 = private unnamed_addr constant [3 x i8] c"\0A\0A\00", align 1

; Function Attrs: inlinehint nounwind uwtable
define internal ptr @Vec_PtrEntry(ptr noundef %0, i32 noundef %1) #4 {
  %3 = alloca ptr, align 8
  %4 = alloca i32, align 4
  store ptr %0, ptr %3, align 8, !tbaa !35
  store i32 %1, ptr %4, align 4, !tbaa !10
  %5 = load ptr, ptr %3, align 8, !tbaa !35
  %6 = getelementptr inbounds nuw %struct.Vec_Ptr_t_, ptr %5, i32 0, i32 2
  %7 = load ptr, ptr %6, align 8, !tbaa !38
  %8 = load i32, ptr %4, align 4, !tbaa !10
  %9 = sext i32 %8 to i64
  %10 = getelementptr inbounds ptr, ptr %7, i64 %9
  %11 = load ptr, ptr %10, align 8, !tbaa !39
  ret ptr %11
}

; Function Attrs: inlinehint nounwind uwtable
define internal i32 @Vec_PtrSize(ptr noundef %0) #4 {
  %2 = alloca ptr, align 8
  store ptr %0, ptr %2, align 8, !tbaa !35
  %3 = load ptr, ptr %2, align 8, !tbaa !35
  %4 = getelementptr inbounds nuw %struct.Vec_Ptr_t_, ptr %3, i32 0, i32 1
  %5 = load i32, ptr %4, align 4, !tbaa !36
  ret i32 %5
}

; Function Attrs: inlinehint nounwind uwtable
define internal i32 @Abc_NtkWhiteboxNum(ptr noundef %0) #4 {
  %2 = alloca ptr, align 8
  store ptr %0, ptr %2, align 8, !tbaa !3
  %3 = load ptr, ptr %2, align 8, !tbaa !3
  %4 = getelementptr inbounds nuw %struct.Abc_Ntk_t_, ptr %3, i32 0, i32 13
  %5 = getelementptr inbounds [11 x i32], ptr %4, i64 0, i64 9
  %6 = load i32, ptr %5, align 4, !tbaa !10
  ret i32 %6
}

; Function Attrs: inlinehint nounwind uwtable
define internal i32 @Abc_NtkBlackboxNum(ptr noundef %0) #4 {
  %2 = alloca ptr, align 8
  store ptr %0, ptr %2, align 8, !tbaa !3
  %3 = load ptr, ptr %2, align 8, !tbaa !3
  %4 = getelementptr inbounds nuw %struct.Abc_Ntk_t_, ptr %3, i32 0, i32 13
  %5 = getelementptr inbounds [11 x i32], ptr %4, i64 0, i64 10
  %6 = load i32, ptr %5, align 8, !tbaa !10
  ret i32 %6
}

; Function Attrs: nounwind uwtable
define void @Io_WriteEdgelist(ptr noundef %0, ptr noundef %1, i32 noundef %2, i32 noundef %3, i32 noundef %4, i32 noundef %5) #0 {
  %7 = alloca ptr, align 8
  %8 = alloca ptr, align 8
  %9 = alloca i32, align 4
  %10 = alloca i32, align 4
  %11 = alloca i32, align 4
  %12 = alloca i32, align 4
  %13 = alloca ptr, align 8
  %14 = alloca i32, align 4
  %15 = alloca i32, align 4
  %16 = alloca ptr, align 8
  store ptr %0, ptr %7, align 8, !tbaa !3
  store ptr %1, ptr %8, align 8, !tbaa !8
  store i32 %2, ptr %9, align 4, !tbaa !10
  store i32 %3, ptr %10, align 4, !tbaa !10
  store i32 %4, ptr %11, align 4, !tbaa !10
  store i32 %5, ptr %12, align 4, !tbaa !10
  call void @llvm.lifetime.start.p0(i64 8, ptr %13) #8
  call void @llvm.lifetime.start.p0(i64 4, ptr %14) #8
  %17 = load ptr, ptr %8, align 8, !tbaa !8
  %18 = call noalias ptr @fopen(ptr noundef %17, ptr noundef @.str)
  store ptr %18, ptr %13, align 8, !tbaa !12
  %19 = load ptr, ptr %13, align 8, !tbaa !12
  %20 = icmp eq ptr %19, null
  br i1 %20, label %21, label %24

21:                                               ; preds = %6
  %22 = load ptr, ptr @stdout, align 8, !tbaa !12
  %23 = call i32 (ptr, ptr, ...) @fprintf(ptr noundef %22, ptr noundef @.str.1) #8
  store i32 1, ptr %15, align 4
  br label %88

24:                                               ; preds = %6
  %25 = load ptr, ptr @stdout, align 8, !tbaa !12
  %26 = load ptr, ptr %8, align 8, !tbaa !8
  %27 = call i32 (ptr, ptr, ...) @fprintf(ptr noundef %25, ptr noundef @.str.2, ptr noundef %26) #8
  %28 = load ptr, ptr %13, align 8, !tbaa !12
  %29 = load ptr, ptr %7, align 8, !tbaa !3
  %30 = getelementptr inbounds nuw %struct.Abc_Ntk_t_, ptr %29, i32 0, i32 2
  %31 = load ptr, ptr %30, align 8, !tbaa !14
  %32 = call ptr (...) @Extra_TimeStamp()
  %33 = call i32 (ptr, ptr, ...) @fprintf(ptr noundef %28, ptr noundef @.str.3, ptr noundef %31, ptr noundef %32) #8
  %34 = load ptr, ptr %13, align 8, !tbaa !12
  %35 = load ptr, ptr %7, align 8, !tbaa !3
  %36 = load i32, ptr %9, align 4, !tbaa !10
  %37 = load i32, ptr %10, align 4, !tbaa !10
  %38 = load i32, ptr %11, align 4, !tbaa !10
  %39 = load i32, ptr %12, align 4, !tbaa !10
  call void @Io_NtkEdgelistWrite(ptr noundef %34, ptr noundef %35, i32 noundef %36, i32 noundef %37, i32 noundef %38, i32 noundef %39)
  %40 = load ptr, ptr %7, align 8, !tbaa !3
  %41 = call i32 @Abc_NtkBlackboxNum(ptr noundef %40)
  %42 = icmp sgt i32 %41, 0
  br i1 %42, label %47, label %43

43:                                               ; preds = %24
  %44 = load ptr, ptr %7, align 8, !tbaa !3
  %45 = call i32 @Abc_NtkWhiteboxNum(ptr noundef %44)
  %46 = icmp sgt i32 %45, 0
  br i1 %46, label %47, label %85

47:                                               ; preds = %43, %24
  call void @llvm.lifetime.start.p0(i64 8, ptr %16) #8
  store i32 0, ptr %14, align 4, !tbaa !10
  br label %48

48:                                               ; preds = %81, %47
  %49 = load i32, ptr %14, align 4, !tbaa !10
  %50 = load ptr, ptr %7, align 8, !tbaa !3
  %51 = getelementptr inbounds nuw %struct.Abc_Ntk_t_, ptr %50, i32 0, i32 20
  %52 = load ptr, ptr %51, align 8, !tbaa !29
  %53 = getelementptr inbounds nuw %struct.Abc_Des_t_, ptr %52, i32 0, i32 3
  %54 = load ptr, ptr %53, align 8, !tbaa !30
  %55 = call i32 @Vec_PtrSize(ptr noundef %54)
  %56 = icmp slt i32 %49, %55
  br i1 %56, label %57, label %65

57:                                               ; preds = %48
  %58 = load ptr, ptr %7, align 8, !tbaa !3
  %59 = getelementptr inbounds nuw %struct.Abc_Ntk_t_, ptr %58, i32 0, i32 20
  %60 = load ptr, ptr %59, align 8, !tbaa !29
  %61 = getelementptr inbounds nuw %struct.Abc_Des_t_, ptr %60, i32 0, i32 3
  %62 = load ptr, ptr %61, align 8, !tbaa !30
  %63 = load i32, ptr %14, align 4, !tbaa !10
  %64 = call ptr @Vec_PtrEntry(ptr noundef %62, i32 noundef %63)
  store ptr %64, ptr %16, align 8, !tbaa !3
  br label %65

65:                                               ; preds = %57, %48
  %66 = phi i1 [ false, %48 ], [ true, %57 ]
  br i1 %66, label %67, label %84

67:                                               ; preds = %65
  %68 = load ptr, ptr %16, align 8, !tbaa !3
  %69 = load ptr, ptr %7, align 8, !tbaa !3
  %70 = icmp eq ptr %68, %69
  br i1 %70, label %71, label %72

71:                                               ; preds = %67
  br label %81

72:                                               ; preds = %67
  %73 = load ptr, ptr %13, align 8, !tbaa !12
  %74 = call i32 (ptr, ptr, ...) @fprintf(ptr noundef %73, ptr noundef @.str.4) #8
  %75 = load ptr, ptr %13, align 8, !tbaa !12
  %76 = load ptr, ptr %16, align 8, !tbaa !3
  %77 = load i32, ptr %9, align 4, !tbaa !10
  %78 = load i32, ptr %10, align 4, !tbaa !10
  %79 = load i32, ptr %11, align 4, !tbaa !10
  %80 = load i32, ptr %12, align 4, !tbaa !10
  call void @Io_NtkEdgelistWrite(ptr noundef %75, ptr noundef %76, i32 noundef %77, i32 noundef %78, i32 noundef %79, i32 noundef %80)
  br label %81

81:                                               ; preds = %72, %71
  %82 = load i32, ptr %14, align 4, !tbaa !10
  %83 = add nsw i32 %82, 1
  store i32 %83, ptr %14, align 4, !tbaa !10
  br label %48, !llvm.loop !33

84:                                               ; preds = %65
  call void @llvm.lifetime.end.p0(i64 8, ptr %16) #8
  br label %85

85:                                               ; preds = %84, %43
  %86 = load ptr, ptr %13, align 8, !tbaa !12
  %87 = call i32 @fclose(ptr noundef %86)
  store i32 0, ptr %15, align 4
  br label %88

88:                                               ; preds = %85, %21
  call void @llvm.lifetime.end.p0(i64 4, ptr %14) #8
  call void @llvm.lifetime.end.p0(i64 8, ptr %13) #8
  %89 = load i32, ptr %15, align 4
  switch i32 %89, label %91 [
    i32 0, label %90
    i32 1, label %90
  ]

90:                                               ; preds = %88, %88
  ret void

91:                                               ; preds = %88
  unreachable
}