; Function Attrs: nounwind uwtable
define void @Io_WriteEdgelist(ptr noundef %0, ptr noundef %1, i32 noundef %2, i32 noundef %3, i32 noundef %4, i32 noundef %5) local_unnamed_addr #0 {
  %7 = tail call noalias ptr @fopen(ptr noundef %1, ptr noundef nonnull @.str)
  %8 = icmp eq ptr %7, null
  %9 = load ptr, ptr @stdout, align 8, !tbaa !3
  br i1 %8, label %10, label %12

10:                                               ; preds = %6
  %11 = tail call i64 @fwrite(ptr nonnull @.str.1, i64 49, i64 1, ptr %9)
  br label %46

12:                                               ; preds = %6
  %13 = tail call i32 (ptr, ptr, ...) @fprintf(ptr noundef %9, ptr noundef nonnull @.str.2, ptr noundef %1) #11
  %14 = getelementptr inbounds nuw i8, ptr %0, i64 8
  %15 = load ptr, ptr %14, align 8, !tbaa !8
  %16 = tail call ptr (...) @Extra_TimeStamp() #11
  %17 = tail call i32 (ptr, ptr, ...) @fprintf(ptr noundef nonnull %7, ptr noundef nonnull @.str.3, ptr noundef %15, ptr noundef %16) #11
  tail call fastcc void @Io_NtkEdgelistWrite(ptr noundef %7, ptr noundef %0, i32 noundef %2, i32 noundef %3, i32 noundef %4, i32 noundef %5)
  %18 = getelementptr i8, ptr %0, i64 136
  %.val30 = load i32, ptr %18, align 8, !tbaa !26
  %19 = icmp sgt i32 %.val30, 0
  br i1 %19, label %23, label %20

20:                                               ; preds = %12
  %21 = getelementptr i8, ptr %0, i64 132
  %.val31 = load i32, ptr %21, align 4, !tbaa !26
  %22 = icmp sgt i32 %.val31, 0
  br i1 %22, label %23, label %.critedge

23:                                               ; preds = %20, %12
  %24 = getelementptr inbounds nuw i8, ptr %0, i64 176
  %25 = load ptr, ptr %24, align 8, !tbaa !27
  %26 = getelementptr inbounds nuw i8, ptr %25, i64 24
  %27 = load ptr, ptr %26, align 8, !tbaa !28
  %28 = getelementptr i8, ptr %27, i64 4
  %.val32 = load i32, ptr %28, align 4, !tbaa !31
  %29 = icmp sgt i32 %.val32, 0
  br i1 %29, label %.lr.ph, label %.critedge

.lr.ph:                                           ; preds = %23, %38
  %30 = phi ptr [ %39, %38 ], [ %25, %23 ]
  %indvars.iv = phi i64 [ %indvars.iv.next, %38 ], [ 0, %23 ]
  %31 = phi ptr [ %41, %38 ], [ %27, %23 ]
  %32 = getelementptr i8, ptr %31, i64 8
  %.val29 = load ptr, ptr %32, align 8, !tbaa !33
  %33 = getelementptr inbounds nuw ptr, ptr %.val29, i64 %indvars.iv
  %34 = load ptr, ptr %33, align 8, !tbaa !34
  %35 = icmp eq ptr %34, %0
  br i1 %35, label %38, label %36

36:                                               ; preds = %.lr.ph
  %37 = tail call i64 @fwrite(ptr nonnull @.str.4, i64 2, i64 1, ptr nonnull %7)
  tail call fastcc void @Io_NtkEdgelistWrite(ptr noundef %7, ptr noundef %34, i32 noundef %2, i32 noundef %3, i32 noundef %4, i32 noundef %5)
  %.pre = load ptr, ptr %24, align 8, !tbaa !27
  br label %38

38:                                               ; preds = %.lr.ph, %36
  %39 = phi ptr [ %30, %.lr.ph ], [ %.pre, %36 ]
  %indvars.iv.next = add nuw nsw i64 %indvars.iv, 1
  %40 = getelementptr inbounds nuw i8, ptr %39, i64 24
  %41 = load ptr, ptr %40, align 8, !tbaa !28
  %42 = getelementptr i8, ptr %41, i64 4
  %.val = load i32, ptr %42, align 4, !tbaa !31
  %43 = sext i32 %.val to i64
  %44 = icmp slt i64 %indvars.iv.next, %43
  br i1 %44, label %.lr.ph, label %.critedge, !llvm.loop !35

.critedge:                                        ; preds = %38, %23, %20
  %45 = tail call i32 @fclose(ptr noundef nonnull %7)
  br label %46

46:                                               ; preds = %.critedge, %10
  ret void
}